; Function Attrs: nounwind uwtable
define void @evhttp_send_reply_start(ptr noundef captures(none) initializes((72, 76), (116, 120)) %0, i32 noundef %1, ptr noundef %2) local_unnamed_addr #0 {
  %4 = getelementptr inbounds nuw i8, ptr %0, i64 72
  store i32 1, ptr %4, align 8
  %5 = getelementptr inbounds nuw i8, ptr %0, i64 116
  store i32 %1, ptr %5, align 4
  %6 = getelementptr inbounds nuw i8, ptr %0, i64 120
  %7 = load ptr, ptr %6, align 8
  %.not.i = icmp eq ptr %7, null
  br i1 %.not.i, label %9, label %8

8:                                                ; preds = %3
  tail call void @event_mm_free_(ptr noundef nonnull %7) #18
  br label %9

9:                                                ; preds = %8, %3
  %10 = icmp eq ptr %2, null
  br i1 %10, label %11, label %evhttp_response_phrase_internal.exit.i

11:                                               ; preds = %9
  %12 = srem i32 %1, 100
  %13 = add i32 %1, -600
  %or.cond.i.i = icmp ult i32 %13, -500
  br i1 %or.cond.i.i, label %evhttp_response_phrase_internal.exit.i, label %14

14:                                               ; preds = %11
  %.lhs.trunc.i.i = trunc nuw i32 %1 to i16
  %15 = udiv i16 %.lhs.trunc.i.i, 100
  %.zext.i.i = zext nneg i16 %15 to i64
  %16 = add nuw nsw i64 %.zext.i.i, 4294967295
  %17 = and i64 %16, 4294967295
  %18 = getelementptr inbounds nuw [5 x %struct.response_class], ptr @response_classes, i64 0, i64 %17
  %19 = getelementptr inbounds nuw i8, ptr %18, i64 8
  %20 = load i64, ptr %19, align 8
  %21 = trunc i64 %20 to i32
  %.not.i.i = icmp slt i32 %12, %21
  br i1 %.not.i.i, label %24, label %22

22:                                               ; preds = %14
  %23 = load ptr, ptr %18, align 8
  br label %evhttp_response_phrase_internal.exit.i

24:                                               ; preds = %14
  %25 = getelementptr inbounds nuw i8, ptr %18, i64 16
  %26 = load ptr, ptr %25, align 8
  %27 = zext nneg i32 %12 to i64
  %28 = getelementptr inbounds nuw ptr, ptr %26, i64 %27
  %29 = load ptr, ptr %28, align 8
  br label %evhttp_response_phrase_internal.exit.i

evhttp_response_phrase_internal.exit.i:           ; preds = %24, %22, %11, %9
  %.0.i = phi ptr [ %2, %9 ], [ %23, %22 ], [ %29, %24 ], [ @.str.105, %11 ]
  %30 = tail call ptr @event_mm_strdup_(ptr noundef %.0.i) #18
  store ptr %30, ptr %6, align 8
  %31 = icmp eq ptr %30, null
  br i1 %31, label %32, label %evhttp_response_code_.exit

32:                                               ; preds = %evhttp_response_phrase_internal.exit.i
  tail call void (ptr, ...) @event_warn(ptr noundef nonnull @.str.2, ptr noundef nonnull @__func__.evhttp_response_code_) #18
  br label %evhttp_response_code_.exit

evhttp_response_code_.exit:                       ; preds = %evhttp_response_phrase_internal.exit.i, %32
  %33 = getelementptr inbounds nuw i8, ptr %0, i64 16
  %34 = load ptr, ptr %33, align 8
  %35 = icmp eq ptr %34, null
  br i1 %35, label %83, label %36

36:                                               ; preds = %evhttp_response_code_.exit
  %37 = getelementptr inbounds nuw i8, ptr %0, i64 40
  %38 = load ptr, ptr %37, align 8
  br label %39

39:                                               ; preds = %40, %36
  %.0.in.i = phi ptr [ %38, %36 ], [ %.0.i14, %40 ]
  %.0.i14 = load ptr, ptr %.0.in.i, align 8
  %.not.i15 = icmp eq ptr %.0.i14, null
  br i1 %.not.i15, label %evhttp_find_header.exit.thread, label %40

40:                                               ; preds = %39
  %41 = getelementptr inbounds nuw i8, ptr %.0.i14, i64 16
  %42 = load ptr, ptr %41, align 8
  %43 = tail call i32 @evutil_ascii_strcasecmp(ptr noundef %42, ptr noundef nonnull @.str.15) #18
  %44 = icmp eq i32 %43, 0
  br i1 %44, label %evhttp_find_header.exit, label %39, !llvm.loop !7

evhttp_find_header.exit:                          ; preds = %40
  %45 = getelementptr inbounds nuw i8, ptr %.0.i14, i64 24
  %46 = load ptr, ptr %45, align 8
  %47 = icmp eq ptr %46, null
  br i1 %47, label %evhttp_find_header.exit.thread, label %evhttp_response_needs_body.exit.thread

evhttp_find_header.exit.thread:                   ; preds = %39, %evhttp_find_header.exit
  %48 = getelementptr inbounds nuw i8, ptr %0, i64 112
  %49 = load i8, ptr %48, align 8
  %50 = icmp sgt i8 %49, 1
  br i1 %50, label %57, label %51

51:                                               ; preds = %evhttp_find_header.exit.thread
  %52 = icmp eq i8 %49, 1
  br i1 %52, label %53, label %evhttp_response_needs_body.exit.thread

53:                                               ; preds = %51
  %54 = getelementptr inbounds nuw i8, ptr %0, i64 113
  %55 = load i8, ptr %54, align 1
  %56 = icmp sgt i8 %55, 0
  br i1 %56, label %57, label %evhttp_response_needs_body.exit.thread

57:                                               ; preds = %53, %evhttp_find_header.exit.thread
  %58 = load i32, ptr %5, align 4
  switch i32 %58, label %59 [
    i32 204, label %evhttp_response_needs_body.exit.thread
    i32 304, label %evhttp_response_needs_body.exit.thread
  ]

59:                                               ; preds = %57
  %60 = add i32 %58, -200
  %or.cond.i = icmp ult i32 %60, -100
  br i1 %or.cond.i, label %61, label %evhttp_response_needs_body.exit.thread

61:                                               ; preds = %59
  %62 = getelementptr inbounds nuw i8, ptr %0, i64 76
  %63 = load i32, ptr %62, align 4
  switch i32 %63, label %64 [
    i32 128, label %evhttp_response_needs_body.exit.thread
    i32 4, label %evhttp_response_needs_body.exit.thread
  ]

64:                                               ; preds = %61
  %65 = load ptr, ptr %37, align 8
  %66 = tail call i32 @evhttp_add_header(ptr noundef %65, ptr noundef nonnull @.str.16, ptr noundef nonnull @.str.17)
  %67 = getelementptr inbounds nuw i8, ptr %0, i64 144
  %68 = load i8, ptr %67, align 8
  %69 = or i8 %68, 1
  store i8 %69, ptr %67, align 8
  br label %73

evhttp_response_needs_body.exit.thread:           ; preds = %61, %61, %59, %57, %57, %53, %51, %evhttp_find_header.exit
  %70 = getelementptr inbounds nuw i8, ptr %0, i64 144
  %71 = load i8, ptr %70, align 8
  %72 = and i8 %71, -2
  store i8 %72, ptr %70, align 8
  br label %73

73:                                               ; preds = %evhttp_response_needs_body.exit.thread, %64
  %74 = load ptr, ptr %33, align 8
  tail call fastcc void @evhttp_make_header(ptr noundef %74, ptr noundef nonnull %0)
  %75 = load ptr, ptr %33, align 8
  %76 = load i32, ptr @event_debug_logging_mask_, align 4
  %.not.i16 = icmp eq i32 %76, 0
  br i1 %.not.i16, label %evhttp_write_buffer.exit, label %77

77:                                               ; preds = %73
  tail call void (ptr, ...) @event_debugx_(ptr noundef nonnull @.str.95, ptr noundef nonnull @__func__.evhttp_write_buffer) #18
  br label %evhttp_write_buffer.exit

evhttp_write_buffer.exit:                         ; preds = %73, %77
  %78 = getelementptr inbounds nuw i8, ptr %75, i64 312
  %79 = getelementptr inbounds nuw i8, ptr %75, i64 16
  tail call void @llvm.memset.p0.i64(ptr noundef nonnull align 8 dereferenceable(16) %78, i8 0, i64 16, i1 false)
  %80 = load ptr, ptr %79, align 8
  tail call void @bufferevent_setcb(ptr noundef %80, ptr noundef null, ptr noundef nonnull @evhttp_write_cb, ptr noundef nonnull @evhttp_error_cb, ptr noundef %75) #18
  %81 = load ptr, ptr %79, align 8
  %82 = tail call i32 @bufferevent_enable(ptr noundef %81, i16 noundef signext 6) #18
  br label %83

83:                                               ; preds = %evhttp_response_code_.exit, %evhttp_write_buffer.exit
  ret void
}